; Function Attrs: mustprogress uwtable
define void @_ZN6google8protobuf4util13FieldMaskUtil24GetFieldMaskForAllFieldsEPKNS0_10DescriptorEPNS0_9FieldMaskE(ptr noundef readonly captures(none) %descriptor, ptr noundef %out) local_unnamed_addr #3 align 2 {
entry:
  %field_count_.i = getelementptr inbounds nuw i8, ptr %descriptor, i64 4
  %0 = load i32, ptr %field_count_.i, align 4
  %cmp4 = icmp sgt i32 %0, 0
  br i1 %cmp4, label %for.body.lr.ph, label %for.end

for.body.lr.ph:                                   ; preds = %entry
  %fields_.i = getelementptr inbounds nuw i8, ptr %descriptor, i64 56
  %1 = getelementptr inbounds nuw i8, ptr %out, i64 16
  br label %for.body

for.body:                                         ; preds = %for.body.lr.ph, %for.body
  %indvars.iv = phi i64 [ 0, %for.body.lr.ph ], [ %indvars.iv.next, %for.body ]
  %2 = load ptr, ptr %fields_.i, align 8
  %all_names_.i = getelementptr inbounds nuw %"class.google::protobuf::FieldDescriptor", ptr %2, i64 %indvars.iv, i32 5
  %3 = load ptr, ptr %all_names_.i, align 8
  %call2.i.i.i = tail call noundef ptr @_ZN6google8protobuf8internal20RepeatedPtrFieldBase18AddOutOfLineHelperEPFPvPNS0_5ArenaEE(ptr noundef nonnull align 8 dereferenceable(24) %1, ptr noundef nonnull @_ZN6google8protobuf8internal16NewStringElementEPNS0_5ArenaE)
  %call3.i = tail call noundef nonnull align 8 dereferenceable(32) ptr @_ZNSt7__cxx1112basic_stringIcSt11char_traitsIcESaIcEE6assignERKS4_(ptr noundef nonnull align 8 dereferenceable(32) %call2.i.i.i, ptr noundef nonnull align 8 dereferenceable(32) %3)
  %indvars.iv.next = add nuw nsw i64 %indvars.iv, 1
  %4 = load i32, ptr %field_count_.i, align 4
  %5 = sext i32 %4 to i64
  %cmp = icmp slt i64 %indvars.iv.next, %5
  br i1 %cmp, label %for.body, label %for.end, !llvm.loop !20

for.end:                                          ; preds = %for.body, %entry
  ret void
}